; Function Attrs: mustprogress uwtable
define void @_ZN3zmq5own_t9set_ownerEPS0_(ptr nocapture noundef nonnull align 8 dereferenceable(1444) %this, ptr noundef %owner_) local_unnamed_addr #0 align 2 {
entry:
  %_owner = getelementptr inbounds i8, ptr %this, i64 1384
  %0 = load ptr, ptr %_owner, align 8
  %tobool.not = icmp eq ptr %0, null
  br i1 %tobool.not, label %do.end, label %if.then

if.then:                                          ; preds = %entry
  %1 = load ptr, ptr @stderr, align 8
  %call = tail call i32 (ptr, ptr, ...) @fprintf(ptr noundef %1, ptr noundef nonnull @.str, ptr noundef nonnull @.str.1, ptr noundef nonnull @.str.2, i32 noundef 35) #21
  %2 = load ptr, ptr @stderr, align 8
  %call3 = tail call i32 @fflush(ptr noundef %2)
  tail call void @_ZN3zmq9zmq_abortEPKc(ptr noundef nonnull @.str.1)
  br label %do.end

do.end:                                           ; preds = %entry, %if.then
  store ptr %owner_, ptr %_owner, align 8
  ret void
}